ccopy_reg
_reconstructor
p0
(cgoogle.oauth2.credentials
Credentials
p1
c__builtin__
object
p2
Ntp3
Rp4
(dp5
S'_token_uri'
p6
Vhttps://oauth2.googleapis.com/token
p7
sS'_scopes'
p8
(lp9
S'https://www.googleapis.com/auth/documents'
p10
asS'_id_token'
p11
NsS'token'
p12
Vya29.Glu4BnHRTxieQZIdmKV6y5KR7cN9d6aD3KNRMAE88r2OfIUHaqFQTnbuGEld9nZU-mA9IjmwhazO-Iyqzc78ctrKEA2FkNOchjHOxf29iI_ORSL7BEi9Be_1F0fW
p13
sS'_refresh_token'
p14
V1/Xl9HlW-xM0Plyc0eIUSPGyoXb-h9wNeYTR7WWr4Pk5k
p15
sS'_client_secret'
p16
VSiwjw0Sw-0HP8_xOAc4FNMn0
p17
sS'_client_id'
p18
V717270579481-15slik9o5d4u6al57fank2dtunofiaen.apps.googleusercontent.com
p19
sS'expiry'
p20
cdatetime
datetime
p21
(S'\x07\xe3\x02\x17\x01#-\x03\xbc\xce'
p22
tp23
Rp24
sb.